Certificate:
    Data:
        Version: 3 (0x2)
        Serial Number: 0 (0x0)
    Signature Algorithm: ecdsa-with-SHA1
        Issuer: C=JP, ST=Tokyo, O=Example Ltd., OU=Dev 1 Division, CN=example.com
        Validity
            Not Before: Mar 18 04:26:56 2019 GMT
            Not After : Mar 15 04:26:56 2029 GMT
        Subject: C=JP, ST=Tokyo, O=Server Ltd., OU=Server1, CN=server.com
        Subject Public Key Info:
            Public Key Algorithm: id-ecPublicKey
                Public-Key: (256 bit)
                pub: 
                    04:1c:b4:48:25:d8:f6:42:79:ab:e5:6b:71:07:cd:
                    46:57:f2:a4:fb:54:26:3b:a7:1c:40:5e:7d:00:af:
                    7e:be:bf:80:6e:04:01:39:c3:5b:23:c7:8d:33:53:
                    47:39:be:57:33:f2:1b:f8:aa:f7:13:af:0d:6e:b4:
                    d5:8c:60:a3:6c
                ASN1 OID: prime256v1
                NIST CURVE: P-256
        X509v3 extensions:
            X509v3 Basic Constraints: 
                CA:TRUE
            Netscape Comment: 
                OpenSSL Generated Certificate
            X509v3 Subject Key Identifier: 
                33:BC:7D:64:8C:10:BD:B6:2E:B1:4C:49:BB:A2:47:9A:09:83:CF:0B
            X509v3 Authority Key Identifier: 
                DirName:/C=JP/ST=Tokyo/O=Example Ltd./OU=Dev 1 Division/CN=example.com
                serial:98:54:C3:4F:D6:E3:6F:59

            X509v3 Subject Alternative Name: 
                DNS:server.com, DNS:foo.server.com
    Signature Algorithm: ecdsa-with-SHA1
         30:44:02:20:57:ae:b1:65:a3:e1:50:db:7d:30:42:3e:8e:73:
         74:0c:a0:4f:b9:14:d0:ca:6c:b3:9a:4f:5f:d3:53:8c:d8:e2:
         02:20:36:28:f3:17:8c:a0:33:e7:c7:b5:15:aa:dc:2f:bc:05:
         fd:4e:72:13:96:b3:da:2c:8a:ba:45:d4:23:7c:47:99
-----BEGIN CERTIFICATE-----
MIICsDCCAligAwIBAgIBADAJBgcqhkjOPQQBMGMxCzAJBgNVBAYTAkpQMQ4wDAYD
VQQIDAVUb2t5bzEVMBMGA1UECgwMRXhhbXBsZSBMdGQuMRcwFQYDVQQLDA5EZXYg
MSBEaXZpc2lvbjEUMBIGA1UEAwwLZXhhbXBsZS5jb20wHhcNMTkwMzE4MDQyNjU2
WhcNMjkwMzE1MDQyNjU2WjBaMQswCQYDVQQGEwJKUDEOMAwGA1UECAwFVG9reW8x
FDASBgNVBAoMC1NlcnZlciBMdGQuMRAwDgYDVQQLDAdTZXJ2ZXIxMRMwEQYDVQQD
DApzZXJ2ZXIuY29tMFkwEwYHKoZIzj0CAQYIKoZIzj0DAQcDQgAEHLRIJdj2Qnmr
5WtxB81GV/Kk+1QmO6ccQF59AK9+vr+AbgQBOcNbI8eNM1NHOb5XM/Ib+Kr3E68N
brTVjGCjbKOCAQUwggEBMAwGA1UdEwQFMAMBAf8wLAYJYIZIAYb4QgENBB8WHU9w
ZW5TU0wgR2VuZXJhdGVkIENlcnRpZmljYXRlMB0GA1UdDgQWBBQzvH1kjBC9ti6x
TEm7okeaCYPPCzB9BgNVHSMEdjB0oWekZTBjMQswCQYDVQQGEwJKUDEOMAwGA1UE
CAwFVG9reW8xFTATBgNVBAoMDEV4YW1wbGUgTHRkLjEXMBUGA1UECwwORGV2IDEg
RGl2aXNpb24xFDASBgNVBAMMC2V4YW1wbGUuY29tggkAmFTDT9bjb1kwJQYDVR0R
BB4wHIIKc2VydmVyLmNvbYIOZm9vLnNlcnZlci5jb20wCQYHKoZIzj0EAQNHADBE
AiBXrrFlo+FQ230wQj6Oc3QMoE+5FNDKbLOaT1/TU4zY4gIgNijzF4ygM+fHtRWq
3C+8Bf1OchOWs9osirpF1CN8R5k=
-----END CERTIFICATE-----
