Certificate:
    Data:
        Version: 3 (0x2)
        Serial Number: 1 (0x1)
    Signature Algorithm: ecdsa-with-SHA1
        Issuer: C=JP, ST=Tokyo, O=Example Ltd., OU=Dev 1 Division, CN=example.com
        Validity
            Not Before: Mar 18 04:27:38 2019 GMT
            Not After : Mar 15 04:27:38 2029 GMT
        Subject: C=JP, ST=Tokyo, O=Client Ltd., OU=Client1, CN=client.com
        Subject Public Key Info:
            Public Key Algorithm: id-ecPublicKey
                Public-Key: (256 bit)
                pub: 
                    04:4f:1c:e5:43:fb:71:46:cd:22:d8:61:60:99:0e:
                    e0:c6:7c:92:0a:03:1d:9e:a2:a7:24:31:f8:c9:58:
                    1e:2c:07:f4:a4:86:cb:5b:9a:46:b6:a3:52:cc:09:
                    55:71:5f:a6:6e:6a:2e:ad:ce:5d:e5:cc:cb:4c:7d:
                    6d:71:38:d6:15
                ASN1 OID: prime256v1
                NIST CURVE: P-256
        X509v3 extensions:
            X509v3 Basic Constraints: 
                CA:TRUE
            Netscape Comment: 
                OpenSSL Generated Certificate
            X509v3 Subject Key Identifier: 
                93:49:4A:5F:71:6D:F6:8D:DE:30:62:B4:8E:80:68:3B:03:EA:91:6C
            X509v3 Authority Key Identifier: 
                DirName:/C=JP/ST=Tokyo/O=Example Ltd./OU=Dev 1 Division/CN=example.com
                serial:98:54:C3:4F:D6:E3:6F:59

            X509v3 Subject Alternative Name: 
                DNS:client.com, DNS:bar.client.com
    Signature Algorithm: ecdsa-with-SHA1
         30:45:02:20:43:b7:f0:49:53:0a:91:71:ac:a1:7c:c8:bc:d2:
         2d:46:ed:63:01:23:fd:52:f6:0d:1c:95:92:4c:ef:7e:e6:86:
         02:21:00:f1:70:80:26:5d:17:67:e4:d1:74:e3:82:4d:22:96:
         d6:cb:ea:5a:50:37:b6:c8:e5:5c:8a:76:4d:d7:9e:89:b5
-----BEGIN CERTIFICATE-----
MIICsTCCAligAwIBAgIBATAJBgcqhkjOPQQBMGMxCzAJBgNVBAYTAkpQMQ4wDAYD
VQQIDAVUb2t5bzEVMBMGA1UECgwMRXhhbXBsZSBMdGQuMRcwFQYDVQQLDA5EZXYg
MSBEaXZpc2lvbjEUMBIGA1UEAwwLZXhhbXBsZS5jb20wHhcNMTkwMzE4MDQyNzM4
WhcNMjkwMzE1MDQyNzM4WjBaMQswCQYDVQQGEwJKUDEOMAwGA1UECAwFVG9reW8x
FDASBgNVBAoMC0NsaWVudCBMdGQuMRAwDgYDVQQLDAdDbGllbnQxMRMwEQYDVQQD
DApjbGllbnQuY29tMFkwEwYHKoZIzj0CAQYIKoZIzj0DAQcDQgAETxzlQ/txRs0i
2GFgmQ7gxnySCgMdnqKnJDH4yVgeLAf0pIbLW5pGtqNSzAlVcV+mbmourc5d5czL
TH1tcTjWFaOCAQUwggEBMAwGA1UdEwQFMAMBAf8wLAYJYIZIAYb4QgENBB8WHU9w
ZW5TU0wgR2VuZXJhdGVkIENlcnRpZmljYXRlMB0GA1UdDgQWBBSTSUpfcW32jd4w
YrSOgGg7A+qRbDB9BgNVHSMEdjB0oWekZTBjMQswCQYDVQQGEwJKUDEOMAwGA1UE
CAwFVG9reW8xFTATBgNVBAoMDEV4YW1wbGUgTHRkLjEXMBUGA1UECwwORGV2IDEg
RGl2aXNpb24xFDASBgNVBAMMC2V4YW1wbGUuY29tggkAmFTDT9bjb1kwJQYDVR0R
BB4wHIIKY2xpZW50LmNvbYIOYmFyLmNsaWVudC5jb20wCQYHKoZIzj0EAQNIADBF
AiBDt/BJUwqRcayhfMi80i1G7WMBI/1S9g0clZJM737mhgIhAPFwgCZdF2fk0XTj
gk0iltbL6lpQN7bI5VyKdk3Xnom1
-----END CERTIFICATE-----
